target datalayout = "e-m:e-p270:32:32-p271:32:32-p272:64:64-i64:64-i128:128-f80:128-n8:16:32:64-S128"
target triple = "x86_64-pc-linux-gnu"

%struct.nstime_t = type { i64, i32 }

; Function Attrs: null_pointer_is_valid sspstrong uwtable
define internal void @get_amqp_timestamp(ptr noundef %0, ptr noundef %1, i32 noundef %2) #0 {
  %4 = alloca ptr, align 8
  %5 = alloca ptr, align 8
  %6 = alloca i32, align 4
  %7 = alloca i64, align 8
  store ptr %0, ptr %4, align 8
  store ptr %1, ptr %5, align 8
  store i32 %2, ptr %6, align 4
  call void @llvm.lifetime.start.p0(i64 8, ptr %7) #11
  %8 = load ptr, ptr %5, align 8
  %9 = load i32, ptr %6, align 4
  %10 = call i64 @tvb_get_ntoh64(ptr noundef %8, i32 noundef %9)
  store i64 %10, ptr %7, align 8
  %11 = load i64, ptr %7, align 8
  %12 = sdiv i64 %11, 1000
  %13 = load ptr, ptr %4, align 8
  %14 = getelementptr inbounds nuw %struct.nstime_t, ptr %13, i32 0, i32 0
  store i64 %12, ptr %14, align 8
  %15 = load i64, ptr %7, align 8
  %16 = srem i64 %15, 1000
  %17 = trunc i64 %16 to i32
  %18 = mul i32 %17, 1000000
  %19 = load ptr, ptr %4, align 8
  %20 = getelementptr inbounds nuw %struct.nstime_t, ptr %19, i32 0, i32 1
  store i32 %18, ptr %20, align 8
  call void @llvm.lifetime.end.p0(i64 8, ptr %7) #11
  ret void
}

; Function Attrs: null_pointer_is_valid sspstrong uwtable
define internal i32 @format_amqp_1_0_timestamp(ptr noundef %0, i32 noundef %1, i32 noundef %2, ptr noundef %3) #0 {
  %5 = alloca ptr, align 8
  %6 = alloca i32, align 4
  %7 = alloca i32, align 4
  %8 = alloca ptr, align 8
  %9 = alloca %struct.nstime_t, align 8
  store ptr %0, ptr %5, align 8
  store i32 %1, ptr %6, align 4
  store i32 %2, ptr %7, align 4
  store ptr %3, ptr %8, align 8
  call void @llvm.lifetime.start.p0(i64 16, ptr %9) #11
  %10 = load ptr, ptr %5, align 8
  %11 = load i32, ptr %6, align 4
  call void @get_amqp_timestamp(ptr noundef %9, ptr noundef %10, i32 noundef %11)
  %12 = call ptr @wmem_packet_scope()
  %13 = call ptr @abs_time_to_str_ex(ptr noundef %12, ptr noundef %9, i32 noundef 19, i32 noundef 0)
  %14 = load ptr, ptr %8, align 8
  store ptr %13, ptr %14, align 8
  call void @llvm.lifetime.end.p0(i64 16, ptr %9) #11
  ret i32 8
}