; Function Attrs: null_pointer_is_valid sspstrong uwtable
define internal noundef i32 @format_amqp_1_0_timestamp(ptr noundef %0, i32 noundef %1, i32 %2, ptr noundef writeonly captures(none) initializes((0, 8)) %3) #0 {
  %5 = alloca %struct.nstime_t, align 8
  call void @llvm.lifetime.start.p0(i64 16, ptr nonnull %5) #14
  %6 = tail call i64 @tvb_get_ntoh64(ptr noundef %0, i32 noundef %1)
  %7 = sdiv i64 %6, 1000
  store i64 %7, ptr %5, align 8
  %8 = srem i64 %6, 1000
  %9 = trunc nsw i64 %8 to i32
  %10 = mul nsw i32 %9, 1000000
  %11 = getelementptr inbounds nuw i8, ptr %5, i64 8
  store i32 %10, ptr %11, align 8
  %12 = tail call ptr @wmem_packet_scope()
  %13 = call ptr @abs_time_to_str_ex(ptr noundef %12, ptr noundef nonnull %5, i32 noundef 19, i32 noundef 0)
  store ptr %13, ptr %3, align 8
  call void @llvm.lifetime.end.p0(i64 16, ptr nonnull %5) #14
  ret i32 8
}